target datalayout = "e-m:e-p270:32:32-p271:32:32-p272:64:64-i64:64-i128:128-f80:128-n8:16:32:64-S128"
target triple = "x86_64-pc-linux-gnu"

%struct.PJconsts = type { ptr, ptr, ptr, ptr, ptr, ptr, ptr, ptr, ptr, ptr, ptr, ptr, i32, ptr, ptr, ptr, ptr, ptr, ptr, ptr, ptr, double, double, double, double, double, double, double, double, double, double, double, double, double, double, double, double, double, double, double, double, double, double, i32, i32, i32, i32, i32, i32, i32, i32, i32, i32, i32, ptr, ptr, ptr, ptr, ptr, ptr, double, double, double, double, double, double, double, double, double, double, double, i32, [7 x double], i32, ptr, ptr, double, double, i32, [4 x i8], %"class.std::shared_ptr", i8, double, i8, %"class.std::__cxx11::basic_string", %"class.std::__cxx11::basic_string", %"class.std::__cxx11::basic_string", i8, %"class.std::vector", i32, %"class.std::vector.3", i32, i8, i8, i8, ptr }
%"class.std::shared_ptr" = type { %"class.std::__shared_ptr" }
%"class.std::__shared_ptr" = type { ptr, %"class.std::__shared_count" }
%"class.std::__shared_count" = type { ptr }
%"class.std::__cxx11::basic_string" = type { %"struct.std::__cxx11::basic_string<char>::_Alloc_hider", i64, %union.anon }
%"struct.std::__cxx11::basic_string<char>::_Alloc_hider" = type { ptr }
%union.anon = type { i64, [8 x i8] }
%"class.std::vector" = type { %"struct.std::_Vector_base" }
%"struct.std::_Vector_base" = type { %"struct.std::_Vector_base<osgeo::proj::operation::GridDescription, std::allocator<osgeo::proj::operation::GridDescription>>::_Vector_impl" }
%"struct.std::_Vector_base<osgeo::proj::operation::GridDescription, std::allocator<osgeo::proj::operation::GridDescription>>::_Vector_impl" = type { %"struct.std::_Vector_base<osgeo::proj::operation::GridDescription, std::allocator<osgeo::proj::operation::GridDescription>>::_Vector_impl_data" }
%"struct.std::_Vector_base<osgeo::proj::operation::GridDescription, std::allocator<osgeo::proj::operation::GridDescription>>::_Vector_impl_data" = type { ptr, ptr, ptr }
%"class.std::vector.3" = type { %"struct.std::_Vector_base.4" }
%"struct.std::_Vector_base.4" = type { %"struct.std::_Vector_base<PJCoordOperation, std::allocator<PJCoordOperation>>::_Vector_impl" }
%"struct.std::_Vector_base<PJCoordOperation, std::allocator<PJCoordOperation>>::_Vector_impl" = type { %"struct.std::_Vector_base<PJCoordOperation, std::allocator<PJCoordOperation>>::_Vector_impl_data" }
%"struct.std::_Vector_base<PJCoordOperation, std::allocator<PJCoordOperation>>::_Vector_impl_data" = type { ptr, ptr, ptr }
%"struct.(anonymous namespace)::pj_oea" = type { double, double, double, double, double, double, double, double, double, double, double }
%struct.PJ_XY = type { double, double }
%struct.PJ_LP = type { double, double }

; Function Attrs: mustprogress uwtable
define internal { double, double } @_ZL13oea_s_forward5PJ_LPP8PJconsts(double %0, double %1, ptr noundef %2) #0 {
  %4 = alloca %struct.PJ_XY, align 8
  %5 = alloca %struct.PJ_LP, align 8
  %6 = alloca ptr, align 8
  %7 = alloca ptr, align 8
  %8 = alloca double, align 8
  %9 = alloca double, align 8
  %10 = alloca double, align 8
  %11 = alloca double, align 8
  %12 = alloca double, align 8
  %13 = alloca double, align 8
  %14 = alloca double, align 8
  %15 = getelementptr inbounds nuw { double, double }, ptr %5, i32 0, i32 0
  store double %0, ptr %15, align 8
  %16 = getelementptr inbounds nuw { double, double }, ptr %5, i32 0, i32 1
  store double %1, ptr %16, align 8
  store ptr %2, ptr %6, align 8, !tbaa !3
  call void @llvm.memset.p0.i64(ptr align 8 %4, i8 0, i64 16, i1 false)
  call void @llvm.lifetime.start.p0(i64 8, ptr %7) #7
  %17 = load ptr, ptr %6, align 8, !tbaa !3
  %18 = getelementptr inbounds nuw %struct.PJconsts, ptr %17, i32 0, i32 11
  %19 = load ptr, ptr %18, align 8, !tbaa !43
  store ptr %19, ptr %7, align 8, !tbaa !41
  call void @llvm.lifetime.start.p0(i64 8, ptr %8) #7
  %20 = getelementptr inbounds nuw %struct.PJ_LP, ptr %5, i32 0, i32 1
  %21 = load double, ptr %20, align 8, !tbaa !64
  %22 = call double @cos(double noundef %21) #7, !tbaa !52
  store double %22, ptr %8, align 8, !tbaa !66
  call void @llvm.lifetime.start.p0(i64 8, ptr %9) #7
  %23 = getelementptr inbounds nuw %struct.PJ_LP, ptr %5, i32 0, i32 1
  %24 = load double, ptr %23, align 8, !tbaa !64
  %25 = call double @sin(double noundef %24) #7, !tbaa !52
  store double %25, ptr %9, align 8, !tbaa !66
  call void @llvm.lifetime.start.p0(i64 8, ptr %10) #7
  %26 = getelementptr inbounds nuw %struct.PJ_LP, ptr %5, i32 0, i32 0
  %27 = load double, ptr %26, align 8, !tbaa !67
  %28 = call double @cos(double noundef %27) #7, !tbaa !52
  store double %28, ptr %10, align 8, !tbaa !66
  call void @llvm.lifetime.start.p0(i64 8, ptr %11) #7
  %29 = load double, ptr %8, align 8, !tbaa !66
  %30 = getelementptr inbounds nuw %struct.PJ_LP, ptr %5, i32 0, i32 0
  %31 = load double, ptr %30, align 8, !tbaa !67
  %32 = call double @sin(double noundef %31) #7, !tbaa !52
  %33 = fmul double %29, %32
  %34 = load ptr, ptr %7, align 8, !tbaa !41
  %35 = getelementptr inbounds nuw %"struct.(anonymous namespace)::pj_oea", ptr %34, i32 0, i32 9
  %36 = load double, ptr %35, align 8, !tbaa !54
  %37 = load double, ptr %9, align 8, !tbaa !66
  %38 = load ptr, ptr %7, align 8, !tbaa !41
  %39 = getelementptr inbounds nuw %"struct.(anonymous namespace)::pj_oea", ptr %38, i32 0, i32 10
  %40 = load double, ptr %39, align 8, !tbaa !53
  %41 = load double, ptr %8, align 8, !tbaa !66
  %42 = fmul double %40, %41
  %43 = load double, ptr %10, align 8, !tbaa !66
  %44 = fmul double %42, %43
  %45 = fneg double %44
  %46 = call double @llvm.fmuladd.f64(double %36, double %37, double %45)
  %47 = call noundef double @_Z6aatan2dd(double noundef %33, double noundef %46)
  %48 = load ptr, ptr %7, align 8, !tbaa !41
  %49 = getelementptr inbounds nuw %"struct.(anonymous namespace)::pj_oea", ptr %48, i32 0, i32 0
  %50 = load double, ptr %49, align 8, !tbaa !50
  %51 = fadd double %47, %50
  store double %51, ptr %11, align 8, !tbaa !66
  call void @llvm.lifetime.start.p0(i64 8, ptr %12) #7
  %52 = load ptr, ptr %6, align 8, !tbaa !3
  %53 = getelementptr inbounds nuw %struct.PJconsts, ptr %52, i32 0, i32 0
  %54 = load ptr, ptr %53, align 8, !tbaa !44
  %55 = load ptr, ptr %7, align 8, !tbaa !41
  %56 = getelementptr inbounds nuw %"struct.(anonymous namespace)::pj_oea", ptr %55, i32 0, i32 10
  %57 = load double, ptr %56, align 8, !tbaa !53
  %58 = load double, ptr %9, align 8, !tbaa !66
  %59 = load ptr, ptr %7, align 8, !tbaa !41
  %60 = getelementptr inbounds nuw %"struct.(anonymous namespace)::pj_oea", ptr %59, i32 0, i32 9
  %61 = load double, ptr %60, align 8, !tbaa !54
  %62 = load double, ptr %8, align 8, !tbaa !66
  %63 = fmul double %61, %62
  %64 = load double, ptr %10, align 8, !tbaa !66
  %65 = fmul double %63, %64
  %66 = call double @llvm.fmuladd.f64(double %57, double %58, double %65)
  %67 = call noundef double @_Z5aacosP6pj_ctxd(ptr noundef %54, double noundef %66)
  %68 = fmul double 5.000000e-01, %67
  %69 = call double @sin(double noundef %68) #7, !tbaa !52
  store double %69, ptr %12, align 8, !tbaa !66
  call void @llvm.lifetime.start.p0(i64 8, ptr %13) #7
  %70 = load ptr, ptr %6, align 8, !tbaa !3
  %71 = getelementptr inbounds nuw %struct.PJconsts, ptr %70, i32 0, i32 0
  %72 = load ptr, ptr %71, align 8, !tbaa !44
  %73 = load double, ptr %12, align 8, !tbaa !66
  %74 = load double, ptr %11, align 8, !tbaa !66
  %75 = call double @sin(double noundef %74) #7, !tbaa !52
  %76 = fmul double %73, %75
  %77 = call noundef double @_Z5aasinP6pj_ctxd(ptr noundef %72, double noundef %76)
  store double %77, ptr %13, align 8, !tbaa !66
  call void @llvm.lifetime.start.p0(i64 8, ptr %14) #7
  %78 = load ptr, ptr %6, align 8, !tbaa !3
  %79 = getelementptr inbounds nuw %struct.PJconsts, ptr %78, i32 0, i32 0
  %80 = load ptr, ptr %79, align 8, !tbaa !44
  %81 = load double, ptr %12, align 8, !tbaa !66
  %82 = load double, ptr %11, align 8, !tbaa !66
  %83 = call double @cos(double noundef %82) #7, !tbaa !52
  %84 = fmul double %81, %83
  %85 = load double, ptr %13, align 8, !tbaa !66
  %86 = call double @cos(double noundef %85) #7, !tbaa !52
  %87 = fmul double %84, %86
  %88 = load double, ptr %13, align 8, !tbaa !66
  %89 = load ptr, ptr %7, align 8, !tbaa !41
  %90 = getelementptr inbounds nuw %"struct.(anonymous namespace)::pj_oea", ptr %89, i32 0, i32 3
  %91 = load double, ptr %90, align 8, !tbaa !58
  %92 = fmul double %88, %91
  %93 = call double @cos(double noundef %92) #7, !tbaa !52
  %94 = fdiv double %87, %93
  %95 = call noundef double @_Z5aasinP6pj_ctxd(ptr noundef %80, double noundef %94)
  store double %95, ptr %14, align 8, !tbaa !66
  %96 = load ptr, ptr %7, align 8, !tbaa !41
  %97 = getelementptr inbounds nuw %"struct.(anonymous namespace)::pj_oea", ptr %96, i32 0, i32 2
  %98 = load double, ptr %97, align 8, !tbaa !47
  %99 = load double, ptr %14, align 8, !tbaa !66
  %100 = load ptr, ptr %7, align 8, !tbaa !41
  %101 = getelementptr inbounds nuw %"struct.(anonymous namespace)::pj_oea", ptr %100, i32 0, i32 4
  %102 = load double, ptr %101, align 8, !tbaa !57
  %103 = fmul double %99, %102
  %104 = call double @sin(double noundef %103) #7, !tbaa !52
  %105 = fmul double %98, %104
  %106 = getelementptr inbounds nuw %struct.PJ_XY, ptr %4, i32 0, i32 1
  store double %105, ptr %106, align 8, !tbaa !68
  %107 = load ptr, ptr %7, align 8, !tbaa !41
  %108 = getelementptr inbounds nuw %"struct.(anonymous namespace)::pj_oea", ptr %107, i32 0, i32 1
  %109 = load double, ptr %108, align 8, !tbaa !49
  %110 = load double, ptr %13, align 8, !tbaa !66
  %111 = load ptr, ptr %7, align 8, !tbaa !41
  %112 = getelementptr inbounds nuw %"struct.(anonymous namespace)::pj_oea", ptr %111, i32 0, i32 3
  %113 = load double, ptr %112, align 8, !tbaa !58
  %114 = fmul double %110, %113
  %115 = call double @sin(double noundef %114) #7, !tbaa !52
  %116 = fmul double %109, %115
  %117 = load double, ptr %14, align 8, !tbaa !66
  %118 = call double @cos(double noundef %117) #7, !tbaa !52
  %119 = fmul double %116, %118
  %120 = load double, ptr %14, align 8, !tbaa !66
  %121 = load ptr, ptr %7, align 8, !tbaa !41
  %122 = getelementptr inbounds nuw %"struct.(anonymous namespace)::pj_oea", ptr %121, i32 0, i32 4
  %123 = load double, ptr %122, align 8, !tbaa !57
  %124 = fmul double %120, %123
  %125 = call double @cos(double noundef %124) #7, !tbaa !52
  %126 = fdiv double %119, %125
  %127 = getelementptr inbounds nuw %struct.PJ_XY, ptr %4, i32 0, i32 0
  store double %126, ptr %127, align 8, !tbaa !70
  call void @llvm.lifetime.end.p0(i64 8, ptr %14) #7
  call void @llvm.lifetime.end.p0(i64 8, ptr %13) #7
  call void @llvm.lifetime.end.p0(i64 8, ptr %12) #7
  call void @llvm.lifetime.end.p0(i64 8, ptr %11) #7
  call void @llvm.lifetime.end.p0(i64 8, ptr %10) #7
  call void @llvm.lifetime.end.p0(i64 8, ptr %9) #7
  call void @llvm.lifetime.end.p0(i64 8, ptr %8) #7
  call void @llvm.lifetime.end.p0(i64 8, ptr %7) #7
  %128 = load { double, double }, ptr %4, align 8
  ret { double, double } %128
}