; Function Attrs: mustprogress uwtable
define internal { double, double } @_ZL13oea_s_forward5PJ_LPP8PJconsts(double %0, double %1, ptr noundef readonly captures(none) %2) #0 {
  %4 = getelementptr inbounds nuw i8, ptr %2, i64 88
  %5 = load ptr, ptr %4, align 8, !tbaa !40
  %6 = tail call double @cos(double noundef %1) #6, !tbaa !48
  %7 = tail call double @sin(double noundef %1) #6, !tbaa !48
  %8 = tail call double @cos(double noundef %0) #6, !tbaa !48
  %9 = tail call double @sin(double noundef %0) #6, !tbaa !48
  %10 = fmul double %6, %9
  %11 = getelementptr inbounds nuw i8, ptr %5, i64 72
  %12 = load double, ptr %11, align 8, !tbaa !50
  %13 = getelementptr inbounds nuw i8, ptr %5, i64 80
  %14 = load double, ptr %13, align 8, !tbaa !49
  %15 = fmul double %6, %14
  %16 = fneg double %8
  %17 = fmul double %15, %16
  %18 = tail call double @llvm.fmuladd.f64(double %12, double %7, double %17)
  %19 = tail call noundef double @_Z6aatan2dd(double noundef %10, double noundef %18)
  %20 = load double, ptr %5, align 8, !tbaa !46
  %21 = fadd double %19, %20
  %22 = load ptr, ptr %2, align 8, !tbaa !41
  %23 = load double, ptr %13, align 8, !tbaa !49
  %24 = load double, ptr %11, align 8, !tbaa !50
  %25 = fmul double %6, %24
  %26 = fmul double %8, %25
  %27 = tail call double @llvm.fmuladd.f64(double %23, double %7, double %26)
  %28 = tail call noundef double @_Z5aacosP6pj_ctxd(ptr noundef %22, double noundef %27)
  %29 = fmul double %28, 5.000000e-01
  %30 = tail call double @sin(double noundef %29) #6, !tbaa !48
  %31 = load ptr, ptr %2, align 8, !tbaa !41
  %32 = tail call double @sin(double noundef %21) #6, !tbaa !48
  %33 = fmul double %30, %32
  %34 = tail call noundef double @_Z5aasinP6pj_ctxd(ptr noundef %31, double noundef %33)
  %35 = load ptr, ptr %2, align 8, !tbaa !41
  %36 = tail call double @cos(double noundef %21) #6, !tbaa !48
  %37 = fmul double %30, %36
  %38 = tail call double @cos(double noundef %34) #6, !tbaa !48
  %39 = fmul double %37, %38
  %40 = getelementptr inbounds nuw i8, ptr %5, i64 24
  %41 = load double, ptr %40, align 8, !tbaa !54
  %42 = fmul double %34, %41
  %43 = tail call double @cos(double noundef %42) #6, !tbaa !48
  %44 = fdiv double %39, %43
  %45 = tail call noundef double @_Z5aasinP6pj_ctxd(ptr noundef %35, double noundef %44)
  %46 = getelementptr inbounds nuw i8, ptr %5, i64 16
  %47 = load double, ptr %46, align 8, !tbaa !43
  %48 = getelementptr inbounds nuw i8, ptr %5, i64 32
  %49 = load double, ptr %48, align 8, !tbaa !53
  %50 = fmul double %45, %49
  %51 = tail call double @sin(double noundef %50) #6, !tbaa !48
  %52 = fmul double %47, %51
  %53 = getelementptr inbounds nuw i8, ptr %5, i64 8
  %54 = load double, ptr %53, align 8, !tbaa !45
  %55 = load double, ptr %40, align 8, !tbaa !54
  %56 = fmul double %34, %55
  %57 = tail call double @sin(double noundef %56) #6, !tbaa !48
  %58 = fmul double %54, %57
  %59 = tail call double @cos(double noundef %45) #6, !tbaa !48
  %60 = fmul double %58, %59
  %61 = tail call double @cos(double noundef %50) #6, !tbaa !48
  %62 = fdiv double %60, %61
  %.fca.0.insert = insertvalue { double, double } poison, double %62, 0
  %.fca.1.insert = insertvalue { double, double } %.fca.0.insert, double %52, 1
  ret { double, double } %.fca.1.insert
}